target datalayout = "e-m:e-p270:32:32-p271:32:32-p272:64:64-i64:64-i128:128-f80:128-n8:16:32:64-S128"
target triple = "x86_64-pc-linux-gnu"

%struct.bio_st = type { ptr, ptr, ptr, i32, i32, i32, i32, i32, i32, ptr, ptr, i64, i64 }
%struct.bio_bio_st = type { ptr, i32, i64, i64, i64, ptr, i8, i8, i8, i64 }

@.str = private unnamed_addr constant [121 x i8] c"generated/home/dtcxzyw/WorkSpace/Projects/compilers/llvm-opt-benchmark/bench/libquic/libquic/boringssl/crypto/bio/pair.c\00", align 1

; Function Attrs: nounwind uwtable
define internal i64 @bio_zero_copy_get_read_buf(ptr noundef %0, ptr noundef %1, ptr noundef %2) #0 {
  %4 = alloca ptr, align 8
  %5 = alloca ptr, align 8
  %6 = alloca ptr, align 8
  %7 = alloca i64, align 8
  store ptr %0, ptr %4, align 8, !tbaa !23
  store ptr %1, ptr %5, align 8, !tbaa !11
  store ptr %2, ptr %6, align 8, !tbaa !13
  call void @llvm.lifetime.start.p0(i64 8, ptr %7) #8
  %8 = load ptr, ptr %4, align 8, !tbaa !23
  %9 = getelementptr inbounds nuw %struct.bio_bio_st, ptr %8, i32 0, i32 2
  %10 = load i64, ptr %9, align 8, !tbaa !29
  %11 = load ptr, ptr %4, align 8, !tbaa !23
  %12 = getelementptr inbounds nuw %struct.bio_bio_st, ptr %11, i32 0, i32 4
  %13 = load i64, ptr %12, align 8, !tbaa !30
  %14 = load ptr, ptr %4, align 8, !tbaa !23
  %15 = getelementptr inbounds nuw %struct.bio_bio_st, ptr %14, i32 0, i32 3
  %16 = load i64, ptr %15, align 8, !tbaa !31
  %17 = sub i64 %13, %16
  %18 = icmp ugt i64 %10, %17
  br i1 %18, label %19, label %27

19:                                               ; preds = %3
  %20 = load ptr, ptr %4, align 8, !tbaa !23
  %21 = getelementptr inbounds nuw %struct.bio_bio_st, ptr %20, i32 0, i32 4
  %22 = load i64, ptr %21, align 8, !tbaa !30
  %23 = load ptr, ptr %4, align 8, !tbaa !23
  %24 = getelementptr inbounds nuw %struct.bio_bio_st, ptr %23, i32 0, i32 3
  %25 = load i64, ptr %24, align 8, !tbaa !31
  %26 = sub i64 %22, %25
  store i64 %26, ptr %7, align 8, !tbaa !15
  br label %31

27:                                               ; preds = %3
  %28 = load ptr, ptr %4, align 8, !tbaa !23
  %29 = getelementptr inbounds nuw %struct.bio_bio_st, ptr %28, i32 0, i32 2
  %30 = load i64, ptr %29, align 8, !tbaa !29
  store i64 %30, ptr %7, align 8, !tbaa !15
  br label %31

31:                                               ; preds = %27, %19
  %32 = load ptr, ptr %4, align 8, !tbaa !23
  %33 = getelementptr inbounds nuw %struct.bio_bio_st, ptr %32, i32 0, i32 5
  %34 = load ptr, ptr %33, align 8, !tbaa !32
  %35 = load ptr, ptr %5, align 8, !tbaa !11
  store ptr %34, ptr %35, align 8, !tbaa !33
  %36 = load ptr, ptr %4, align 8, !tbaa !23
  %37 = getelementptr inbounds nuw %struct.bio_bio_st, ptr %36, i32 0, i32 3
  %38 = load i64, ptr %37, align 8, !tbaa !31
  %39 = load ptr, ptr %6, align 8, !tbaa !13
  store i64 %38, ptr %39, align 8, !tbaa !15
  %40 = load i64, ptr %7, align 8, !tbaa !15
  call void @llvm.lifetime.end.p0(i64 8, ptr %7) #8
  ret i64 %40
}

; Function Attrs: nounwind uwtable
define hidden i32 @BIO_zero_copy_get_read_buf(ptr noundef %0, ptr noundef %1, ptr noundef %2, ptr noundef %3) #0 {
  %5 = alloca i32, align 4
  %6 = alloca ptr, align 8
  %7 = alloca ptr, align 8
  %8 = alloca ptr, align 8
  %9 = alloca ptr, align 8
  %10 = alloca ptr, align 8
  %11 = alloca ptr, align 8
  %12 = alloca i64, align 8
  %13 = alloca i32, align 4
  store ptr %0, ptr %6, align 8, !tbaa !6
  store ptr %1, ptr %7, align 8, !tbaa !11
  store ptr %2, ptr %8, align 8, !tbaa !13
  store ptr %3, ptr %9, align 8, !tbaa !13
  call void @llvm.lifetime.start.p0(i64 8, ptr %10) #8
  call void @llvm.lifetime.start.p0(i64 8, ptr %11) #8
  call void @llvm.lifetime.start.p0(i64 8, ptr %12) #8
  %14 = load ptr, ptr %9, align 8, !tbaa !13
  store i64 0, ptr %14, align 8, !tbaa !15
  %15 = load ptr, ptr %6, align 8, !tbaa !6
  call void @BIO_clear_retry_flags(ptr noundef %15)
  %16 = load ptr, ptr %6, align 8, !tbaa !6
  %17 = getelementptr inbounds nuw %struct.bio_st, ptr %16, i32 0, i32 3
  %18 = load i32, ptr %17, align 8, !tbaa !17
  %19 = icmp ne i32 %18, 0
  br i1 %19, label %21, label %20

20:                                               ; preds = %4
  call void @ERR_put_error(i32 noundef 17, i32 noundef 0, i32 noundef 114, ptr noundef @.str, i32 noundef 184)
  store i32 0, ptr %5, align 4
  store i32 1, ptr %13, align 4
  br label %76

21:                                               ; preds = %4
  %22 = load ptr, ptr %6, align 8, !tbaa !6
  %23 = getelementptr inbounds nuw %struct.bio_st, ptr %22, i32 0, i32 9
  %24 = load ptr, ptr %23, align 8, !tbaa !22
  store ptr %24, ptr %10, align 8, !tbaa !23
  %25 = load ptr, ptr %10, align 8, !tbaa !23
  %26 = icmp ne ptr %25, null
  br i1 %26, label %27, label %32

27:                                               ; preds = %21
  %28 = load ptr, ptr %10, align 8, !tbaa !23
  %29 = getelementptr inbounds nuw %struct.bio_bio_st, ptr %28, i32 0, i32 0
  %30 = load ptr, ptr %29, align 8, !tbaa !25
  %31 = icmp ne ptr %30, null
  br i1 %31, label %33, label %32

32:                                               ; preds = %27, %21
  call void @ERR_put_error(i32 noundef 17, i32 noundef 0, i32 noundef 115, ptr noundef @.str, i32 noundef 191)
  store i32 0, ptr %5, align 4
  store i32 1, ptr %13, align 4
  br label %76

33:                                               ; preds = %27
  %34 = load ptr, ptr %10, align 8, !tbaa !23
  %35 = getelementptr inbounds nuw %struct.bio_bio_st, ptr %34, i32 0, i32 0
  %36 = load ptr, ptr %35, align 8, !tbaa !25
  %37 = getelementptr inbounds nuw %struct.bio_st, ptr %36, i32 0, i32 9
  %38 = load ptr, ptr %37, align 8, !tbaa !22
  store ptr %38, ptr %11, align 8, !tbaa !23
  %39 = load ptr, ptr %11, align 8, !tbaa !23
  %40 = icmp ne ptr %39, null
  br i1 %40, label %41, label %54

41:                                               ; preds = %33
  %42 = load ptr, ptr %11, align 8, !tbaa !23
  %43 = getelementptr inbounds nuw %struct.bio_bio_st, ptr %42, i32 0, i32 0
  %44 = load ptr, ptr %43, align 8, !tbaa !25
  %45 = icmp ne ptr %44, null
  br i1 %45, label %46, label %54

46:                                               ; preds = %41
  %47 = load ptr, ptr %11, align 8, !tbaa !23
  %48 = getelementptr inbounds nuw %struct.bio_bio_st, ptr %47, i32 0, i32 0
  %49 = load ptr, ptr %48, align 8, !tbaa !25
  %50 = getelementptr inbounds nuw %struct.bio_st, ptr %49, i32 0, i32 9
  %51 = load ptr, ptr %50, align 8, !tbaa !22
  %52 = load ptr, ptr %10, align 8, !tbaa !23
  %53 = icmp ne ptr %51, %52
  br i1 %53, label %54, label %55

54:                                               ; preds = %46, %41, %33
  call void @ERR_put_error(i32 noundef 17, i32 noundef 0, i32 noundef 115, ptr noundef @.str, i32 noundef 197)
  store i32 0, ptr %5, align 4
  store i32 1, ptr %13, align 4
  br label %76

55:                                               ; preds = %46
  %56 = load ptr, ptr %11, align 8, !tbaa !23
  %57 = getelementptr inbounds nuw %struct.bio_bio_st, ptr %56, i32 0, i32 7
  %58 = load i8, ptr %57, align 1, !tbaa !27
  %59 = icmp ne i8 %58, 0
  br i1 %59, label %60, label %61

60:                                               ; preds = %55
  call void @ERR_put_error(i32 noundef 17, i32 noundef 0, i32 noundef 104, ptr noundef @.str, i32 noundef 202)
  store i32 0, ptr %5, align 4
  store i32 1, ptr %13, align 4
  br label %76

61:                                               ; preds = %55
  %62 = load ptr, ptr %11, align 8, !tbaa !23
  %63 = getelementptr inbounds nuw %struct.bio_bio_st, ptr %62, i32 0, i32 9
  store i64 0, ptr %63, align 8, !tbaa !28
  %64 = load ptr, ptr %11, align 8, !tbaa !23
  %65 = load ptr, ptr %7, align 8, !tbaa !11
  %66 = load ptr, ptr %8, align 8, !tbaa !13
  %67 = call i64 @bio_zero_copy_get_read_buf(ptr noundef %64, ptr noundef %65, ptr noundef %66)
  store i64 %67, ptr %12, align 8, !tbaa !15
  %68 = load i64, ptr %12, align 8, !tbaa !15
  %69 = icmp ugt i64 %68, 0
  br i1 %69, label %70, label %73

70:                                               ; preds = %61
  %71 = load ptr, ptr %11, align 8, !tbaa !23
  %72 = getelementptr inbounds nuw %struct.bio_bio_st, ptr %71, i32 0, i32 7
  store i8 1, ptr %72, align 1, !tbaa !27
  br label %73

73:                                               ; preds = %70, %61
  %74 = load i64, ptr %12, align 8, !tbaa !15
  %75 = load ptr, ptr %9, align 8, !tbaa !13
  store i64 %74, ptr %75, align 8, !tbaa !15
  store i32 1, ptr %5, align 4
  store i32 1, ptr %13, align 4
  br label %76

76:                                               ; preds = %73, %60, %54, %32, %20
  call void @llvm.lifetime.end.p0(i64 8, ptr %12) #8
  call void @llvm.lifetime.end.p0(i64 8, ptr %11) #8
  call void @llvm.lifetime.end.p0(i64 8, ptr %10) #8
  %77 = load i32, ptr %5, align 4
  ret i32 %77
}