; Function Attrs: nounwind uwtable
define hidden range(i32 0, 2) i32 @BIO_zero_copy_get_read_buf(ptr noundef %0, ptr noundef writeonly captures(none) %1, ptr noundef writeonly captures(none) %2, ptr noundef writeonly captures(none) initializes((0, 8)) %3) local_unnamed_addr #0 {
  store i64 0, ptr %3, align 8, !tbaa !6
  tail call void @BIO_clear_retry_flags(ptr noundef %0) #12
  %5 = getelementptr inbounds nuw i8, ptr %0, i64 24
  %6 = load i32, ptr %5, align 8, !tbaa !10
  %.not = icmp eq i32 %6, 0
  br i1 %.not, label %7, label %8

7:                                                ; preds = %4
  tail call void @ERR_put_error(i32 noundef 17, i32 noundef 0, i32 noundef 114, ptr noundef nonnull @.str, i32 noundef 184) #12
  br label %40

8:                                                ; preds = %4
  %9 = getelementptr inbounds nuw i8, ptr %0, i64 48
  %10 = load ptr, ptr %9, align 8, !tbaa !17
  %.not24 = icmp eq ptr %10, null
  br i1 %.not24, label %13, label %11

11:                                               ; preds = %8
  %12 = load ptr, ptr %10, align 8, !tbaa !18
  %.not25 = icmp eq ptr %12, null
  br i1 %.not25, label %13, label %14

13:                                               ; preds = %11, %8
  tail call void @ERR_put_error(i32 noundef 17, i32 noundef 0, i32 noundef 115, ptr noundef nonnull @.str, i32 noundef 191) #12
  br label %40

14:                                               ; preds = %11
  %15 = getelementptr inbounds nuw i8, ptr %12, i64 48
  %16 = load ptr, ptr %15, align 8, !tbaa !17
  %.not26 = icmp eq ptr %16, null
  br i1 %.not26, label %22, label %17

17:                                               ; preds = %14
  %18 = load ptr, ptr %16, align 8, !tbaa !18
  %.not27 = icmp eq ptr %18, null
  br i1 %.not27, label %22, label %19

19:                                               ; preds = %17
  %20 = getelementptr inbounds nuw i8, ptr %18, i64 48
  %21 = load ptr, ptr %20, align 8, !tbaa !17
  %.not28 = icmp eq ptr %21, %10
  br i1 %.not28, label %23, label %22

22:                                               ; preds = %19, %17, %14
  tail call void @ERR_put_error(i32 noundef 17, i32 noundef 0, i32 noundef 115, ptr noundef nonnull @.str, i32 noundef 197) #12
  br label %40

23:                                               ; preds = %19
  %24 = getelementptr inbounds nuw i8, ptr %16, i64 49
  %25 = load i8, ptr %24, align 1, !tbaa !20
  %.not29 = icmp eq i8 %25, 0
  br i1 %.not29, label %27, label %26

26:                                               ; preds = %23
  tail call void @ERR_put_error(i32 noundef 17, i32 noundef 0, i32 noundef 104, ptr noundef nonnull @.str, i32 noundef 202) #12
  br label %40

27:                                               ; preds = %23
  %28 = getelementptr inbounds nuw i8, ptr %16, i64 56
  store i64 0, ptr %28, align 8, !tbaa !21
  %29 = getelementptr inbounds nuw i8, ptr %16, i64 16
  %30 = load i64, ptr %29, align 8, !tbaa !22
  %31 = getelementptr inbounds nuw i8, ptr %16, i64 32
  %32 = load i64, ptr %31, align 8, !tbaa !23
  %33 = getelementptr inbounds nuw i8, ptr %16, i64 24
  %34 = load i64, ptr %33, align 8, !tbaa !24
  %35 = sub i64 %32, %34
  %..i = tail call i64 @llvm.umin.i64(i64 %30, i64 %35)
  %36 = getelementptr inbounds nuw i8, ptr %16, i64 40
  %37 = load ptr, ptr %36, align 8, !tbaa !25
  store ptr %37, ptr %1, align 8, !tbaa !26
  store i64 %34, ptr %2, align 8, !tbaa !6
  %.not30 = icmp eq i64 %..i, 0
  br i1 %.not30, label %39, label %38

38:                                               ; preds = %27
  store i8 1, ptr %24, align 1, !tbaa !20
  br label %39

39:                                               ; preds = %38, %27
  store i64 %..i, ptr %3, align 8, !tbaa !6
  br label %40

40:                                               ; preds = %39, %26, %22, %13, %7
  %.0 = phi i32 [ 0, %22 ], [ 0, %26 ], [ 1, %39 ], [ 0, %13 ], [ 0, %7 ]
  ret i32 %.0
}